target datalayout = "e-m:e-p270:32:32-p271:32:32-p272:64:64-i64:64-i128:128-f80:128-n8:16:32:64-S128"
target triple = "x86_64-unknown-linux-gnu"

%"class.icu_75::UnicodeString" = type { %"class.icu_75::Replaceable", %"union.icu_75::UnicodeString::StackBufferOrFields" }
%"class.icu_75::Replaceable" = type { %"class.icu_75::UObject" }
%"class.icu_75::UObject" = type { ptr }
%"union.icu_75::UnicodeString::StackBufferOrFields" = type { %struct.anon.0, [32 x i8] }
%struct.anon.0 = type { i16, i32, i32, ptr }
%"class.icu_75::UCharsTrieBuilder" = type { %"class.icu_75::StringTrieBuilder", %"class.icu_75::UnicodeString", ptr, i32, i32, ptr, i32, i32 }
%"class.icu_75::StringTrieBuilder" = type { %"class.icu_75::UObject", ptr }

; Function Attrs: mustprogress uwtable
define noundef signext i8 @_ZN6icu_7517UCharsTrieBuilder14ensureCapacityEi(ptr noundef nonnull align 8 dereferenceable(112) %this, i32 noundef %length) #0 align 2 {
entry:
  %retval = alloca i8, align 1
  %this.addr = alloca ptr, align 8
  %length.addr = alloca i32, align 4
  %newCapacity = alloca i32, align 4
  %newUChars = alloca ptr, align 8
  store ptr %this, ptr %this.addr, align 8
  store i32 %length, ptr %length.addr, align 4
  %this1 = load ptr, ptr %this.addr, align 8
  %uchars = getelementptr inbounds %"class.icu_75::UCharsTrieBuilder", ptr %this1, i32 0, i32 5
  %0 = load ptr, ptr %uchars, align 8
  %cmp = icmp eq ptr %0, null
  br i1 %cmp, label %if.then, label %if.end

if.then:                                          ; preds = %entry
  store i8 0, ptr %retval, align 1
  br label %return

if.end:                                           ; preds = %entry
  %1 = load i32, ptr %length.addr, align 4
  %ucharsCapacity = getelementptr inbounds %"class.icu_75::UCharsTrieBuilder", ptr %this1, i32 0, i32 6
  %2 = load i32, ptr %ucharsCapacity, align 8
  %cmp2 = icmp sgt i32 %1, %2
  br i1 %cmp2, label %if.then3, label %if.end24

if.then3:                                         ; preds = %if.end
  %ucharsCapacity4 = getelementptr inbounds %"class.icu_75::UCharsTrieBuilder", ptr %this1, i32 0, i32 6
  %3 = load i32, ptr %ucharsCapacity4, align 8
  store i32 %3, ptr %newCapacity, align 4
  br label %do.body

do.body:                                          ; preds = %do.cond, %if.then3
  %4 = load i32, ptr %newCapacity, align 4
  %mul = mul nsw i32 %4, 2
  store i32 %mul, ptr %newCapacity, align 4
  br label %do.cond

do.cond:                                          ; preds = %do.body
  %5 = load i32, ptr %newCapacity, align 4
  %6 = load i32, ptr %length.addr, align 4
  %cmp5 = icmp sle i32 %5, %6
  br i1 %cmp5, label %do.body, label %do.end, !llvm.loop !13

do.end:                                           ; preds = %do.cond
  %7 = load i32, ptr %newCapacity, align 4
  %mul6 = mul nsw i32 %7, 2
  %conv = sext i32 %mul6 to i64
  %call = call noalias ptr @uprv_malloc_75(i64 noundef %conv) #10
  store ptr %call, ptr %newUChars, align 8
  %8 = load ptr, ptr %newUChars, align 8
  %cmp7 = icmp eq ptr %8, null
  br i1 %cmp7, label %if.then8, label %if.end12

if.then8:                                         ; preds = %do.end
  %uchars9 = getelementptr inbounds %"class.icu_75::UCharsTrieBuilder", ptr %this1, i32 0, i32 5
  %9 = load ptr, ptr %uchars9, align 8
  call void @uprv_free_75(ptr noundef %9)
  %uchars10 = getelementptr inbounds %"class.icu_75::UCharsTrieBuilder", ptr %this1, i32 0, i32 5
  store ptr null, ptr %uchars10, align 8
  %ucharsCapacity11 = getelementptr inbounds %"class.icu_75::UCharsTrieBuilder", ptr %this1, i32 0, i32 6
  store i32 0, ptr %ucharsCapacity11, align 8
  store i8 0, ptr %retval, align 1
  br label %return

if.end12:                                         ; preds = %do.end
  %10 = load ptr, ptr %newUChars, align 8
  %11 = load i32, ptr %newCapacity, align 4
  %ucharsLength = getelementptr inbounds %"class.icu_75::UCharsTrieBuilder", ptr %this1, i32 0, i32 7
  %12 = load i32, ptr %ucharsLength, align 4
  %sub = sub nsw i32 %11, %12
  %idx.ext = sext i32 %sub to i64
  %add.ptr = getelementptr inbounds i16, ptr %10, i64 %idx.ext
  %uchars13 = getelementptr inbounds %"class.icu_75::UCharsTrieBuilder", ptr %this1, i32 0, i32 5
  %13 = load ptr, ptr %uchars13, align 8
  %ucharsCapacity14 = getelementptr inbounds %"class.icu_75::UCharsTrieBuilder", ptr %this1, i32 0, i32 6
  %14 = load i32, ptr %ucharsCapacity14, align 8
  %ucharsLength15 = getelementptr inbounds %"class.icu_75::UCharsTrieBuilder", ptr %this1, i32 0, i32 7
  %15 = load i32, ptr %ucharsLength15, align 4
  %sub16 = sub nsw i32 %14, %15
  %idx.ext17 = sext i32 %sub16 to i64
  %add.ptr18 = getelementptr inbounds i16, ptr %13, i64 %idx.ext17
  %ucharsLength19 = getelementptr inbounds %"class.icu_75::UCharsTrieBuilder", ptr %this1, i32 0, i32 7
  %16 = load i32, ptr %ucharsLength19, align 4
  %call20 = call ptr @u_memcpy_75(ptr noundef %add.ptr, ptr noundef %add.ptr18, i32 noundef %16)
  %uchars21 = getelementptr inbounds %"class.icu_75::UCharsTrieBuilder", ptr %this1, i32 0, i32 5
  %17 = load ptr, ptr %uchars21, align 8
  call void @uprv_free_75(ptr noundef %17)
  %18 = load ptr, ptr %newUChars, align 8
  %uchars22 = getelementptr inbounds %"class.icu_75::UCharsTrieBuilder", ptr %this1, i32 0, i32 5
  store ptr %18, ptr %uchars22, align 8
  %19 = load i32, ptr %newCapacity, align 4
  %ucharsCapacity23 = getelementptr inbounds %"class.icu_75::UCharsTrieBuilder", ptr %this1, i32 0, i32 6
  store i32 %19, ptr %ucharsCapacity23, align 8
  br label %if.end24

if.end24:                                         ; preds = %if.end12, %if.end
  store i8 1, ptr %retval, align 1
  br label %return

return:                                           ; preds = %if.end24, %if.then8, %if.then
  %20 = load i8, ptr %retval, align 1
  ret i8 %20
}

; Function Attrs: mustprogress uwtable
define noundef i32 @_ZN6icu_7517UCharsTrieBuilder5writeEPKDsi(ptr noundef nonnull align 8 dereferenceable(112) %this, ptr noundef %s, i32 noundef %length) #0 align 2 {
entry:
  %this.addr = alloca ptr, align 8
  %s.addr = alloca ptr, align 8
  %length.addr = alloca i32, align 4
  %newLength = alloca i32, align 4
  store ptr %this, ptr %this.addr, align 8
  store ptr %s, ptr %s.addr, align 8
  store i32 %length, ptr %length.addr, align 4
  %this1 = load ptr, ptr %this.addr, align 8
  %ucharsLength = getelementptr inbounds %"class.icu_75::UCharsTrieBuilder", ptr %this1, i32 0, i32 7
  %0 = load i32, ptr %ucharsLength, align 4
  %1 = load i32, ptr %length.addr, align 4
  %add = add nsw i32 %0, %1
  store i32 %add, ptr %newLength, align 4
  %2 = load i32, ptr %newLength, align 4
  %call = call noundef signext i8 @_ZN6icu_7517UCharsTrieBuilder14ensureCapacityEi(ptr noundef nonnull align 8 dereferenceable(112) %this1, i32 noundef %2)
  %tobool = icmp ne i8 %call, 0
  br i1 %tobool, label %if.then, label %if.end

if.then:                                          ; preds = %entry
  %3 = load i32, ptr %newLength, align 4
  %ucharsLength2 = getelementptr inbounds %"class.icu_75::UCharsTrieBuilder", ptr %this1, i32 0, i32 7
  store i32 %3, ptr %ucharsLength2, align 4
  %uchars = getelementptr inbounds %"class.icu_75::UCharsTrieBuilder", ptr %this1, i32 0, i32 5
  %4 = load ptr, ptr %uchars, align 8
  %ucharsCapacity = getelementptr inbounds %"class.icu_75::UCharsTrieBuilder", ptr %this1, i32 0, i32 6
  %5 = load i32, ptr %ucharsCapacity, align 8
  %ucharsLength3 = getelementptr inbounds %"class.icu_75::UCharsTrieBuilder", ptr %this1, i32 0, i32 7
  %6 = load i32, ptr %ucharsLength3, align 4
  %sub = sub nsw i32 %5, %6
  %idx.ext = sext i32 %sub to i64
  %add.ptr = getelementptr inbounds i16, ptr %4, i64 %idx.ext
  %7 = load ptr, ptr %s.addr, align 8
  %8 = load i32, ptr %length.addr, align 4
  %call4 = call ptr @u_memcpy_75(ptr noundef %add.ptr, ptr noundef %7, i32 noundef %8)
  br label %if.end

if.end:                                           ; preds = %if.then, %entry
  %ucharsLength5 = getelementptr inbounds %"class.icu_75::UCharsTrieBuilder", ptr %this1, i32 0, i32 7
  %9 = load i32, ptr %ucharsLength5, align 4
  ret i32 %9
}